; Function Attrs: mustprogress nounwind uwtable
define void @deleteResBund(ptr noundef %obj) #7 {
entry:
  %isnull = icmp eq ptr %obj, null
  br i1 %isnull, label %delete.end, label %delete.notnull

delete.notnull:                                   ; preds = %entry
  %vtable = load ptr, ptr %obj, align 8
  %vfn = getelementptr inbounds i8, ptr %vtable, i64 8
  %0 = load ptr, ptr %vfn, align 8
  tail call void %0(ptr noundef nonnull align 8 dereferenceable(24) %obj) #15
  br label %delete.end

delete.end:                                       ; preds = %delete.notnull, %entry
  ret void
}